target datalayout = "e-m:e-p270:32:32-p271:32:32-p272:64:64-i64:64-i128:128-f80:128-n8:16:32:64-S128"
target triple = "x86_64-pc-linux-gnu"

%struct.conf_value_st = type { ptr, ptr, ptr }

; Function Attrs: nounwind uwtable
define internal i32 @conf_value_cmp(ptr noundef %0, ptr noundef %1) #0 {
  %3 = alloca i32, align 4
  %4 = alloca ptr, align 8
  %5 = alloca ptr, align 8
  %6 = alloca i32, align 4
  %7 = alloca i32, align 4
  store ptr %0, ptr %4, align 8, !tbaa !15
  store ptr %1, ptr %5, align 8, !tbaa !15
  call void @llvm.lifetime.start.p0(i64 4, ptr %6) #8
  %8 = load ptr, ptr %4, align 8, !tbaa !15
  %9 = getelementptr inbounds nuw %struct.conf_value_st, ptr %8, i32 0, i32 0
  %10 = load ptr, ptr %9, align 8, !tbaa !17
  %11 = load ptr, ptr %5, align 8, !tbaa !15
  %12 = getelementptr inbounds nuw %struct.conf_value_st, ptr %11, i32 0, i32 0
  %13 = load ptr, ptr %12, align 8, !tbaa !17
  %14 = icmp ne ptr %10, %13
  br i1 %14, label %15, label %28

15:                                               ; preds = %2
  %16 = load ptr, ptr %4, align 8, !tbaa !15
  %17 = getelementptr inbounds nuw %struct.conf_value_st, ptr %16, i32 0, i32 0
  %18 = load ptr, ptr %17, align 8, !tbaa !17
  %19 = load ptr, ptr %5, align 8, !tbaa !15
  %20 = getelementptr inbounds nuw %struct.conf_value_st, ptr %19, i32 0, i32 0
  %21 = load ptr, ptr %20, align 8, !tbaa !17
  %22 = call i32 @strcmp(ptr noundef %18, ptr noundef %21) #10
  store i32 %22, ptr %6, align 4, !tbaa !21
  %23 = load i32, ptr %6, align 4, !tbaa !21
  %24 = icmp ne i32 %23, 0
  br i1 %24, label %25, label %27

25:                                               ; preds = %15
  %26 = load i32, ptr %6, align 4, !tbaa !21
  store i32 %26, ptr %3, align 4
  store i32 1, ptr %7, align 4
  br label %61

27:                                               ; preds = %15
  br label %28

28:                                               ; preds = %27, %2
  %29 = load ptr, ptr %4, align 8, !tbaa !15
  %30 = getelementptr inbounds nuw %struct.conf_value_st, ptr %29, i32 0, i32 1
  %31 = load ptr, ptr %30, align 8, !tbaa !20
  %32 = icmp ne ptr %31, null
  br i1 %32, label %33, label %46

33:                                               ; preds = %28
  %34 = load ptr, ptr %5, align 8, !tbaa !15
  %35 = getelementptr inbounds nuw %struct.conf_value_st, ptr %34, i32 0, i32 1
  %36 = load ptr, ptr %35, align 8, !tbaa !20
  %37 = icmp ne ptr %36, null
  br i1 %37, label %38, label %46

38:                                               ; preds = %33
  %39 = load ptr, ptr %4, align 8, !tbaa !15
  %40 = getelementptr inbounds nuw %struct.conf_value_st, ptr %39, i32 0, i32 1
  %41 = load ptr, ptr %40, align 8, !tbaa !20
  %42 = load ptr, ptr %5, align 8, !tbaa !15
  %43 = getelementptr inbounds nuw %struct.conf_value_st, ptr %42, i32 0, i32 1
  %44 = load ptr, ptr %43, align 8, !tbaa !20
  %45 = call i32 @strcmp(ptr noundef %41, ptr noundef %44) #10
  store i32 %45, ptr %3, align 4
  store i32 1, ptr %7, align 4
  br label %61

46:                                               ; preds = %33, %28
  %47 = load ptr, ptr %4, align 8, !tbaa !15
  %48 = getelementptr inbounds nuw %struct.conf_value_st, ptr %47, i32 0, i32 1
  %49 = load ptr, ptr %48, align 8, !tbaa !20
  %50 = load ptr, ptr %5, align 8, !tbaa !15
  %51 = getelementptr inbounds nuw %struct.conf_value_st, ptr %50, i32 0, i32 1
  %52 = load ptr, ptr %51, align 8, !tbaa !20
  %53 = icmp eq ptr %49, %52
  br i1 %53, label %54, label %55

54:                                               ; preds = %46
  store i32 0, ptr %3, align 4
  store i32 1, ptr %7, align 4
  br label %61

55:                                               ; preds = %46
  %56 = load ptr, ptr %4, align 8, !tbaa !15
  %57 = getelementptr inbounds nuw %struct.conf_value_st, ptr %56, i32 0, i32 1
  %58 = load ptr, ptr %57, align 8, !tbaa !20
  %59 = icmp eq ptr %58, null
  %60 = select i1 %59, i32 -1, i32 1
  store i32 %60, ptr %3, align 4
  store i32 1, ptr %7, align 4
  br label %61

61:                                               ; preds = %55, %54, %38, %25
  call void @llvm.lifetime.end.p0(i64 4, ptr %6) #8
  %62 = load i32, ptr %3, align 4
  ret i32 %62
}